target datalayout = "e-m:e-p270:32:32-p271:32:32-p272:64:64-i64:64-i128:128-f80:128-n8:16:32:64-S128"
target triple = "x86_64-pc-linux-gnu"

%"class.grpc_core::CompressionAlgorithmSet" = type { %"class.grpc_core::BitSet" }
%"class.grpc_core::BitSet" = type { [1 x i8] }

; Function Attrs: mustprogress uwtable
define i32 @grpc_compression_algorithm_for_level(i32 noundef %0, i32 noundef %1) #5 {
  %3 = alloca i32, align 4
  %4 = alloca i32, align 4
  %5 = alloca %"class.grpc_core::CompressionAlgorithmSet", align 1
  store i32 %0, ptr %3, align 4, !tbaa !33
  store i32 %1, ptr %4, align 4, !tbaa !28
  call void @llvm.lifetime.start.p0(i64 1, ptr %5) #3
  %6 = load i32, ptr %4, align 4, !tbaa !28
  %7 = call i8 @_ZN9grpc_core23CompressionAlgorithmSet10FromUint32Ej(i32 noundef %6)
  %8 = getelementptr inbounds nuw %"class.grpc_core::CompressionAlgorithmSet", ptr %5, i32 0, i32 0
  %9 = getelementptr inbounds nuw %"class.grpc_core::BitSet", ptr %8, i32 0, i32 0
  store i8 %7, ptr %9, align 1
  %10 = load i32, ptr %3, align 4, !tbaa !33
  %11 = call noundef i32 @_ZNK9grpc_core23CompressionAlgorithmSet28CompressionAlgorithmForLevelE22grpc_compression_level(ptr noundef nonnull align 1 dereferenceable(1) %5, i32 noundef %10)
  call void @llvm.lifetime.end.p0(i64 1, ptr %5) #3
  ret i32 %11
}