; Function Attrs: mustprogress uwtable
define noundef i32 @grpc_compression_algorithm_for_level(i32 noundef %0, i32 noundef %1) local_unnamed_addr #4 {
  %3 = alloca %"class.grpc_core::CompressionAlgorithmSet", align 1
  call void @llvm.lifetime.start.p0(i64 1, ptr nonnull %3) #13
  %4 = tail call i8 @_ZN9grpc_core23CompressionAlgorithmSet10FromUint32Ej(i32 noundef %1)
  store i8 %4, ptr %3, align 1
  %5 = call noundef i32 @_ZNK9grpc_core23CompressionAlgorithmSet28CompressionAlgorithmForLevelE22grpc_compression_level(ptr noundef nonnull align 1 dereferenceable(1) %3, i32 noundef %0)
  call void @llvm.lifetime.end.p0(i64 1, ptr nonnull %3) #13
  ret i32 %5
}